target datalayout = "e-m:e-p270:32:32-p271:32:32-p272:64:64-i64:64-i128:128-f80:128-n8:16:32:64-S128"
target triple = "x86_64-pc-linux-gnu"

@zend_tolower_map = external constant [256 x i8], align 16

; Function Attrs: nounwind uwtable
define internal zeroext i1 @php_tag_find(ptr noundef %0, i64 noundef %1, ptr noundef %2) #0 {
  %4 = alloca i1, align 1
  %5 = alloca ptr, align 8
  %6 = alloca i64, align 8
  %7 = alloca ptr, align 8
  %8 = alloca i8, align 1
  %9 = alloca ptr, align 8
  %10 = alloca ptr, align 8
  %11 = alloca i32, align 4
  %12 = alloca i8, align 1
  %13 = alloca ptr, align 8
  %14 = alloca i32, align 4
  store ptr %0, ptr %5, align 8, !tbaa !10
  store i64 %1, ptr %6, align 8, !tbaa !31
  store ptr %2, ptr %7, align 8, !tbaa !10
  call void @llvm.lifetime.start.p0(i64 1, ptr %8) #22
  call void @llvm.lifetime.start.p0(i64 8, ptr %9) #22
  call void @llvm.lifetime.start.p0(i64 8, ptr %10) #22
  call void @llvm.lifetime.start.p0(i64 4, ptr %11) #22
  store i32 0, ptr %11, align 4, !tbaa !17
  call void @llvm.lifetime.start.p0(i64 1, ptr %12) #22
  store i8 0, ptr %12, align 1, !tbaa !19
  call void @llvm.lifetime.start.p0(i64 8, ptr %13) #22
  %15 = load i64, ptr %6, align 8, !tbaa !31
  %16 = icmp eq i64 %15, 0
  br i1 %16, label %17, label %18

17:                                               ; preds = %3
  store i1 false, ptr %4, align 1
  store i32 1, ptr %14, align 4
  br label %364

18:                                               ; preds = %3
  %19 = load i64, ptr %6, align 8, !tbaa !31
  %20 = add i64 %19, 1
  %21 = call i1 @llvm.is.constant.i64(i64 %20)
  br i1 %21, label %22, label %276

22:                                               ; preds = %18
  %23 = load i64, ptr %6, align 8, !tbaa !31
  %24 = add i64 %23, 1
  %25 = icmp ule i64 %24, 8
  br i1 %25, label %26, label %28

26:                                               ; preds = %22
  %27 = call noalias ptr @_emalloc_8()
  br label %274

28:                                               ; preds = %22
  %29 = load i64, ptr %6, align 8, !tbaa !31
  %30 = add i64 %29, 1
  %31 = icmp ule i64 %30, 16
  br i1 %31, label %32, label %34

32:                                               ; preds = %28
  %33 = call noalias ptr @_emalloc_16()
  br label %272

34:                                               ; preds = %28
  %35 = load i64, ptr %6, align 8, !tbaa !31
  %36 = add i64 %35, 1
  %37 = icmp ule i64 %36, 24
  br i1 %37, label %38, label %40

38:                                               ; preds = %34
  %39 = call noalias ptr @_emalloc_24()
  br label %270

40:                                               ; preds = %34
  %41 = load i64, ptr %6, align 8, !tbaa !31
  %42 = add i64 %41, 1
  %43 = icmp ule i64 %42, 32
  br i1 %43, label %44, label %46

44:                                               ; preds = %40
  %45 = call noalias ptr @_emalloc_32()
  br label %268

46:                                               ; preds = %40
  %47 = load i64, ptr %6, align 8, !tbaa !31
  %48 = add i64 %47, 1
  %49 = icmp ule i64 %48, 40
  br i1 %49, label %50, label %52

50:                                               ; preds = %46
  %51 = call noalias ptr @_emalloc_40()
  br label %266

52:                                               ; preds = %46
  %53 = load i64, ptr %6, align 8, !tbaa !31
  %54 = add i64 %53, 1
  %55 = icmp ule i64 %54, 48
  br i1 %55, label %56, label %58

56:                                               ; preds = %52
  %57 = call noalias ptr @_emalloc_48()
  br label %264

58:                                               ; preds = %52
  %59 = load i64, ptr %6, align 8, !tbaa !31
  %60 = add i64 %59, 1
  %61 = icmp ule i64 %60, 56
  br i1 %61, label %62, label %64

62:                                               ; preds = %58
  %63 = call noalias ptr @_emalloc_56()
  br label %262

64:                                               ; preds = %58
  %65 = load i64, ptr %6, align 8, !tbaa !31
  %66 = add i64 %65, 1
  %67 = icmp ule i64 %66, 64
  br i1 %67, label %68, label %70

68:                                               ; preds = %64
  %69 = call noalias ptr @_emalloc_64()
  br label %260

70:                                               ; preds = %64
  %71 = load i64, ptr %6, align 8, !tbaa !31
  %72 = add i64 %71, 1
  %73 = icmp ule i64 %72, 80
  br i1 %73, label %74, label %76

74:                                               ; preds = %70
  %75 = call noalias ptr @_emalloc_80()
  br label %258

76:                                               ; preds = %70
  %77 = load i64, ptr %6, align 8, !tbaa !31
  %78 = add i64 %77, 1
  %79 = icmp ule i64 %78, 96
  br i1 %79, label %80, label %82

80:                                               ; preds = %76
  %81 = call noalias ptr @_emalloc_96()
  br label %256

82:                                               ; preds = %76
  %83 = load i64, ptr %6, align 8, !tbaa !31
  %84 = add i64 %83, 1
  %85 = icmp ule i64 %84, 112
  br i1 %85, label %86, label %88

86:                                               ; preds = %82
  %87 = call noalias ptr @_emalloc_112()
  br label %254

88:                                               ; preds = %82
  %89 = load i64, ptr %6, align 8, !tbaa !31
  %90 = add i64 %89, 1
  %91 = icmp ule i64 %90, 128
  br i1 %91, label %92, label %94

92:                                               ; preds = %88
  %93 = call noalias ptr @_emalloc_128()
  br label %252

94:                                               ; preds = %88
  %95 = load i64, ptr %6, align 8, !tbaa !31
  %96 = add i64 %95, 1
  %97 = icmp ule i64 %96, 160
  br i1 %97, label %98, label %100

98:                                               ; preds = %94
  %99 = call noalias ptr @_emalloc_160()
  br label %250

100:                                              ; preds = %94
  %101 = load i64, ptr %6, align 8, !tbaa !31
  %102 = add i64 %101, 1
  %103 = icmp ule i64 %102, 192
  br i1 %103, label %104, label %106

104:                                              ; preds = %100
  %105 = call noalias ptr @_emalloc_192()
  br label %248

106:                                              ; preds = %100
  %107 = load i64, ptr %6, align 8, !tbaa !31
  %108 = add i64 %107, 1
  %109 = icmp ule i64 %108, 224
  br i1 %109, label %110, label %112

110:                                              ; preds = %106
  %111 = call noalias ptr @_emalloc_224()
  br label %246

112:                                              ; preds = %106
  %113 = load i64, ptr %6, align 8, !tbaa !31
  %114 = add i64 %113, 1
  %115 = icmp ule i64 %114, 256
  br i1 %115, label %116, label %118

116:                                              ; preds = %112
  %117 = call noalias ptr @_emalloc_256()
  br label %244

118:                                              ; preds = %112
  %119 = load i64, ptr %6, align 8, !tbaa !31
  %120 = add i64 %119, 1
  %121 = icmp ule i64 %120, 320
  br i1 %121, label %122, label %124

122:                                              ; preds = %118
  %123 = call noalias ptr @_emalloc_320()
  br label %242

124:                                              ; preds = %118
  %125 = load i64, ptr %6, align 8, !tbaa !31
  %126 = add i64 %125, 1
  %127 = icmp ule i64 %126, 384
  br i1 %127, label %128, label %130

128:                                              ; preds = %124
  %129 = call noalias ptr @_emalloc_384()
  br label %240

130:                                              ; preds = %124
  %131 = load i64, ptr %6, align 8, !tbaa !31
  %132 = add i64 %131, 1
  %133 = icmp ule i64 %132, 448
  br i1 %133, label %134, label %136

134:                                              ; preds = %130
  %135 = call noalias ptr @_emalloc_448()
  br label %238

136:                                              ; preds = %130
  %137 = load i64, ptr %6, align 8, !tbaa !31
  %138 = add i64 %137, 1
  %139 = icmp ule i64 %138, 512
  br i1 %139, label %140, label %142

140:                                              ; preds = %136
  %141 = call noalias ptr @_emalloc_512()
  br label %236

142:                                              ; preds = %136
  %143 = load i64, ptr %6, align 8, !tbaa !31
  %144 = add i64 %143, 1
  %145 = icmp ule i64 %144, 640
  br i1 %145, label %146, label %148

146:                                              ; preds = %142
  %147 = call noalias ptr @_emalloc_640()
  br label %234

148:                                              ; preds = %142
  %149 = load i64, ptr %6, align 8, !tbaa !31
  %150 = add i64 %149, 1
  %151 = icmp ule i64 %150, 768
  br i1 %151, label %152, label %154

152:                                              ; preds = %148
  %153 = call noalias ptr @_emalloc_768()
  br label %232

154:                                              ; preds = %148
  %155 = load i64, ptr %6, align 8, !tbaa !31
  %156 = add i64 %155, 1
  %157 = icmp ule i64 %156, 896
  br i1 %157, label %158, label %160

158:                                              ; preds = %154
  %159 = call noalias ptr @_emalloc_896()
  br label %230

160:                                              ; preds = %154
  %161 = load i64, ptr %6, align 8, !tbaa !31
  %162 = add i64 %161, 1
  %163 = icmp ule i64 %162, 1024
  br i1 %163, label %164, label %166

164:                                              ; preds = %160
  %165 = call noalias ptr @_emalloc_1024()
  br label %228

166:                                              ; preds = %160
  %167 = load i64, ptr %6, align 8, !tbaa !31
  %168 = add i64 %167, 1
  %169 = icmp ule i64 %168, 1280
  br i1 %169, label %170, label %172

170:                                              ; preds = %166
  %171 = call noalias ptr @_emalloc_1280()
  br label %226

172:                                              ; preds = %166
  %173 = load i64, ptr %6, align 8, !tbaa !31
  %174 = add i64 %173, 1
  %175 = icmp ule i64 %174, 1536
  br i1 %175, label %176, label %178

176:                                              ; preds = %172
  %177 = call noalias ptr @_emalloc_1536()
  br label %224

178:                                              ; preds = %172
  %179 = load i64, ptr %6, align 8, !tbaa !31
  %180 = add i64 %179, 1
  %181 = icmp ule i64 %180, 1792
  br i1 %181, label %182, label %184

182:                                              ; preds = %178
  %183 = call noalias ptr @_emalloc_1792()
  br label %222

184:                                              ; preds = %178
  %185 = load i64, ptr %6, align 8, !tbaa !31
  %186 = add i64 %185, 1
  %187 = icmp ule i64 %186, 2048
  br i1 %187, label %188, label %190

188:                                              ; preds = %184
  %189 = call noalias ptr @_emalloc_2048()
  br label %220

190:                                              ; preds = %184
  %191 = load i64, ptr %6, align 8, !tbaa !31
  %192 = add i64 %191, 1
  %193 = icmp ule i64 %192, 2560
  br i1 %193, label %194, label %196

194:                                              ; preds = %190
  %195 = call noalias ptr @_emalloc_2560()
  br label %218

196:                                              ; preds = %190
  %197 = load i64, ptr %6, align 8, !tbaa !31
  %198 = add i64 %197, 1
  %199 = icmp ule i64 %198, 3072
  br i1 %199, label %200, label %202

200:                                              ; preds = %196
  %201 = call noalias ptr @_emalloc_3072()
  br label %216

202:                                              ; preds = %196
  %203 = load i64, ptr %6, align 8, !tbaa !31
  %204 = add i64 %203, 1
  %205 = icmp ule i64 %204, 2093056
  br i1 %205, label %206, label %210

206:                                              ; preds = %202
  %207 = load i64, ptr %6, align 8, !tbaa !31
  %208 = add i64 %207, 1
  %209 = call noalias ptr @_emalloc_large(i64 noundef %208) #25
  br label %214

210:                                              ; preds = %202
  %211 = load i64, ptr %6, align 8, !tbaa !31
  %212 = add i64 %211, 1
  %213 = call noalias ptr @_emalloc_huge(i64 noundef %212) #25
  br label %214

214:                                              ; preds = %210, %206
  %215 = phi ptr [ %209, %206 ], [ %213, %210 ]
  br label %216

216:                                              ; preds = %214, %200
  %217 = phi ptr [ %201, %200 ], [ %215, %214 ]
  br label %218

218:                                              ; preds = %216, %194
  %219 = phi ptr [ %195, %194 ], [ %217, %216 ]
  br label %220

220:                                              ; preds = %218, %188
  %221 = phi ptr [ %189, %188 ], [ %219, %218 ]
  br label %222

222:                                              ; preds = %220, %182
  %223 = phi ptr [ %183, %182 ], [ %221, %220 ]
  br label %224

224:                                              ; preds = %222, %176
  %225 = phi ptr [ %177, %176 ], [ %223, %222 ]
  br label %226

226:                                              ; preds = %224, %170
  %227 = phi ptr [ %171, %170 ], [ %225, %224 ]
  br label %228

228:                                              ; preds = %226, %164
  %229 = phi ptr [ %165, %164 ], [ %227, %226 ]
  br label %230

230:                                              ; preds = %228, %158
  %231 = phi ptr [ %159, %158 ], [ %229, %228 ]
  br label %232

232:                                              ; preds = %230, %152
  %233 = phi ptr [ %153, %152 ], [ %231, %230 ]
  br label %234

234:                                              ; preds = %232, %146
  %235 = phi ptr [ %147, %146 ], [ %233, %232 ]
  br label %236

236:                                              ; preds = %234, %140
  %237 = phi ptr [ %141, %140 ], [ %235, %234 ]
  br label %238

238:                                              ; preds = %236, %134
  %239 = phi ptr [ %135, %134 ], [ %237, %236 ]
  br label %240

240:                                              ; preds = %238, %128
  %241 = phi ptr [ %129, %128 ], [ %239, %238 ]
  br label %242

242:                                              ; preds = %240, %122
  %243 = phi ptr [ %123, %122 ], [ %241, %240 ]
  br label %244

244:                                              ; preds = %242, %116
  %245 = phi ptr [ %117, %116 ], [ %243, %242 ]
  br label %246

246:                                              ; preds = %244, %110
  %247 = phi ptr [ %111, %110 ], [ %245, %244 ]
  br label %248

248:                                              ; preds = %246, %104
  %249 = phi ptr [ %105, %104 ], [ %247, %246 ]
  br label %250

250:                                              ; preds = %248, %98
  %251 = phi ptr [ %99, %98 ], [ %249, %248 ]
  br label %252

252:                                              ; preds = %250, %92
  %253 = phi ptr [ %93, %92 ], [ %251, %250 ]
  br label %254

254:                                              ; preds = %252, %86
  %255 = phi ptr [ %87, %86 ], [ %253, %252 ]
  br label %256

256:                                              ; preds = %254, %80
  %257 = phi ptr [ %81, %80 ], [ %255, %254 ]
  br label %258

258:                                              ; preds = %256, %74
  %259 = phi ptr [ %75, %74 ], [ %257, %256 ]
  br label %260

260:                                              ; preds = %258, %68
  %261 = phi ptr [ %69, %68 ], [ %259, %258 ]
  br label %262

262:                                              ; preds = %260, %62
  %263 = phi ptr [ %63, %62 ], [ %261, %260 ]
  br label %264

264:                                              ; preds = %262, %56
  %265 = phi ptr [ %57, %56 ], [ %263, %262 ]
  br label %266

266:                                              ; preds = %264, %50
  %267 = phi ptr [ %51, %50 ], [ %265, %264 ]
  br label %268

268:                                              ; preds = %266, %44
  %269 = phi ptr [ %45, %44 ], [ %267, %266 ]
  br label %270

270:                                              ; preds = %268, %38
  %271 = phi ptr [ %39, %38 ], [ %269, %268 ]
  br label %272

272:                                              ; preds = %270, %32
  %273 = phi ptr [ %33, %32 ], [ %271, %270 ]
  br label %274

274:                                              ; preds = %272, %26
  %275 = phi ptr [ %27, %26 ], [ %273, %272 ]
  br label %280

276:                                              ; preds = %18
  %277 = load i64, ptr %6, align 8, !tbaa !31
  %278 = add i64 %277, 1
  %279 = call noalias ptr @_emalloc(i64 noundef %278) #25
  br label %280

280:                                              ; preds = %276, %274
  %281 = phi ptr [ %275, %274 ], [ %279, %276 ]
  store ptr %281, ptr %13, align 8, !tbaa !10
  %282 = load ptr, ptr %13, align 8, !tbaa !10
  store ptr %282, ptr %9, align 8, !tbaa !10
  %283 = load ptr, ptr %5, align 8, !tbaa !10
  store ptr %283, ptr %10, align 8, !tbaa !10
  %284 = load ptr, ptr %10, align 8, !tbaa !10
  %285 = load i8, ptr %284, align 1, !tbaa !12
  %286 = zext i8 %285 to i64
  %287 = getelementptr inbounds nuw [256 x i8], ptr @zend_tolower_map, i64 0, i64 %286
  %288 = load i8, ptr %287, align 1, !tbaa !12
  store i8 %288, ptr %8, align 1, !tbaa !12
  br label %289

289:                                              ; preds = %343, %280
  %290 = load i8, ptr %12, align 1, !tbaa !19, !range !21, !noundef !22
  %291 = trunc i8 %290 to i1
  %292 = xor i1 %291, true
  br i1 %292, label %293, label %350

293:                                              ; preds = %289
  %294 = load i8, ptr %8, align 1, !tbaa !12
  %295 = sext i8 %294 to i32
  switch i32 %295, label %301 [
    i32 60, label %296
    i32 62, label %300
  ]

296:                                              ; preds = %293
  %297 = load i8, ptr %8, align 1, !tbaa !12
  %298 = load ptr, ptr %9, align 8, !tbaa !10
  %299 = getelementptr inbounds nuw i8, ptr %298, i32 1
  store ptr %299, ptr %9, align 8, !tbaa !10
  store i8 %297, ptr %298, align 1, !tbaa !12
  br label %343

300:                                              ; preds = %293
  store i8 1, ptr %12, align 1, !tbaa !19
  br label %343

301:                                              ; preds = %293
  %302 = call ptr @__ctype_b_loc() #26
  %303 = load ptr, ptr %302, align 8, !tbaa !128
  %304 = load i8, ptr %8, align 1, !tbaa !12
  %305 = sext i8 %304 to i32
  %306 = sext i32 %305 to i64
  %307 = getelementptr inbounds i16, ptr %303, i64 %306
  %308 = load i16, ptr %307, align 2, !tbaa !130
  %309 = zext i16 %308 to i32
  %310 = and i32 %309, 8192
  %311 = icmp ne i32 %310, 0
  br i1 %311, label %337, label %312

312:                                              ; preds = %301
  %313 = load i32, ptr %11, align 4, !tbaa !17
  %314 = icmp eq i32 %313, 0
  br i1 %314, label %315, label %316

315:                                              ; preds = %312
  store i32 1, ptr %11, align 4, !tbaa !17
  br label %316

316:                                              ; preds = %315, %312
  %317 = load i8, ptr %8, align 1, !tbaa !12
  %318 = sext i8 %317 to i32
  %319 = icmp ne i32 %318, 47
  br i1 %319, label %332, label %320

320:                                              ; preds = %316
  %321 = load ptr, ptr %10, align 8, !tbaa !10
  %322 = getelementptr inbounds i8, ptr %321, i64 -1
  %323 = load i8, ptr %322, align 1, !tbaa !12
  %324 = sext i8 %323 to i32
  %325 = icmp ne i32 %324, 60
  br i1 %325, label %326, label %336

326:                                              ; preds = %320
  %327 = load ptr, ptr %10, align 8, !tbaa !10
  %328 = getelementptr inbounds i8, ptr %327, i64 1
  %329 = load i8, ptr %328, align 1, !tbaa !12
  %330 = sext i8 %329 to i32
  %331 = icmp ne i32 %330, 62
  br i1 %331, label %332, label %336

332:                                              ; preds = %326, %316
  %333 = load i8, ptr %8, align 1, !tbaa !12
  %334 = load ptr, ptr %9, align 8, !tbaa !10
  %335 = getelementptr inbounds nuw i8, ptr %334, i32 1
  store ptr %335, ptr %9, align 8, !tbaa !10
  store i8 %333, ptr %334, align 1, !tbaa !12
  br label %336

336:                                              ; preds = %332, %326, %320
  br label %342

337:                                              ; preds = %301
  %338 = load i32, ptr %11, align 4, !tbaa !17
  %339 = icmp eq i32 %338, 1
  br i1 %339, label %340, label %341

340:                                              ; preds = %337
  store i8 1, ptr %12, align 1, !tbaa !19
  br label %341

341:                                              ; preds = %340, %337
  br label %342

342:                                              ; preds = %341, %336
  br label %343

343:                                              ; preds = %342, %300, %296
  %344 = load ptr, ptr %10, align 8, !tbaa !10
  %345 = getelementptr inbounds nuw i8, ptr %344, i32 1
  store ptr %345, ptr %10, align 8, !tbaa !10
  %346 = load i8, ptr %345, align 1, !tbaa !12
  %347 = zext i8 %346 to i64
  %348 = getelementptr inbounds nuw [256 x i8], ptr @zend_tolower_map, i64 0, i64 %347
  %349 = load i8, ptr %348, align 1, !tbaa !12
  store i8 %349, ptr %8, align 1, !tbaa !12
  br label %289

350:                                              ; preds = %289
  %351 = load ptr, ptr %9, align 8, !tbaa !10
  %352 = getelementptr inbounds nuw i8, ptr %351, i32 1
  store ptr %352, ptr %9, align 8, !tbaa !10
  store i8 62, ptr %351, align 1, !tbaa !12
  %353 = load ptr, ptr %9, align 8, !tbaa !10
  store i8 0, ptr %353, align 1, !tbaa !12
  %354 = load ptr, ptr %7, align 8, !tbaa !10
  %355 = load ptr, ptr %13, align 8, !tbaa !10
  %356 = call ptr @strstr(ptr noundef %354, ptr noundef %355) #23
  %357 = icmp ne ptr %356, null
  br i1 %357, label %358, label %359

358:                                              ; preds = %350
  store i8 1, ptr %12, align 1, !tbaa !19
  br label %360

359:                                              ; preds = %350
  store i8 0, ptr %12, align 1, !tbaa !19
  br label %360

360:                                              ; preds = %359, %358
  %361 = load ptr, ptr %13, align 8, !tbaa !10
  call void @_efree(ptr noundef %361)
  %362 = load i8, ptr %12, align 1, !tbaa !19, !range !21, !noundef !22
  %363 = trunc i8 %362 to i1
  store i1 %363, ptr %4, align 1
  store i32 1, ptr %14, align 4
  br label %364

364:                                              ; preds = %360, %17
  call void @llvm.lifetime.end.p0(i64 8, ptr %13) #22
  call void @llvm.lifetime.end.p0(i64 1, ptr %12) #22
  call void @llvm.lifetime.end.p0(i64 4, ptr %11) #22
  call void @llvm.lifetime.end.p0(i64 8, ptr %10) #22
  call void @llvm.lifetime.end.p0(i64 8, ptr %9) #22
  call void @llvm.lifetime.end.p0(i64 1, ptr %8) #22
  %365 = load i1, ptr %4, align 1
  ret i1 %365
}