; Function Attrs: nounwind uwtable
define internal fastcc zeroext i1 @php_tag_find(ptr noundef readonly captures(none) %0, i64 noundef %1, ptr noundef nonnull readonly %2) unnamed_addr #0 {
  %4 = icmp eq i64 %1, 0
  br i1 %4, label %32, label %5

5:                                                ; preds = %3
  %6 = add i64 %1, 1
  %7 = tail call noalias ptr @_emalloc(i64 noundef %6) #29
  br label %.outer

.outer:                                           ; preds = %.outer.backedge, %5
  %.05978.ph = phi i32 [ 0, %5 ], [ %.05978.ph.be, %.outer.backedge ]
  %.06177.ph = phi ptr [ %0, %5 ], [ %.06177.ph.be, %.outer.backedge ]
  %.06276.ph = phi ptr [ %7, %5 ], [ %.06276.ph.be, %.outer.backedge ]
  br label %8

8:                                                ; preds = %.outer, %9
  %.06177 = phi ptr [ %11, %9 ], [ %.06177.ph, %.outer ]
  %.06276 = phi ptr [ %10, %9 ], [ %.06276.ph, %.outer ]
  %.pn73.pn.in = load i8, ptr %.06177, align 1, !tbaa !10
  %.pn73.pn = zext i8 %.pn73.pn.in to i64
  %.06480.in = getelementptr inbounds nuw [256 x i8], ptr @zend_tolower_map, i64 0, i64 %.pn73.pn
  %.06480 = load i8, ptr %.06480.in, align 1, !tbaa !10
  switch i8 %.06480, label %12 [
    i8 60, label %9
    i8 62, label %.thread
  ]

9:                                                ; preds = %8
  %10 = getelementptr inbounds nuw i8, ptr %.06276, i64 1
  store i8 60, ptr %.06276, align 1, !tbaa !10
  %11 = getelementptr inbounds nuw i8, ptr %.06177, i64 1
  br label %8

12:                                               ; preds = %8
  %13 = tail call ptr @__ctype_b_loc() #33
  %14 = load ptr, ptr %13, align 8, !tbaa !112
  %15 = sext i8 %.06480 to i64
  %16 = getelementptr inbounds i16, ptr %14, i64 %15
  %17 = load i16, ptr %16, align 2, !tbaa !114
  %18 = and i16 %17, 8192
  %.not67 = icmp eq i16 %18, 0
  br i1 %.not67, label %19, label %28

19:                                               ; preds = %12
  %.not68 = icmp eq i8 %.06480, 47
  br i1 %.not68, label %20, label %26

20:                                               ; preds = %19
  %21 = getelementptr inbounds i8, ptr %.06177, i64 -1
  %22 = load i8, ptr %21, align 1, !tbaa !10
  %.not69 = icmp eq i8 %22, 60
  br i1 %.not69, label %.outer.backedge, label %23

23:                                               ; preds = %20
  %24 = getelementptr inbounds nuw i8, ptr %.06177, i64 1
  %25 = load i8, ptr %24, align 1, !tbaa !10
  %.not70 = icmp eq i8 %25, 62
  br i1 %.not70, label %.outer.backedge, label %26

26:                                               ; preds = %23, %19
  %27 = getelementptr inbounds nuw i8, ptr %.06276, i64 1
  store i8 %.06480, ptr %.06276, align 1, !tbaa !10
  br label %.outer.backedge

28:                                               ; preds = %12
  %29 = icmp eq i32 %.05978.ph, 1
  br i1 %29, label %.thread, label %.outer.backedge

.outer.backedge:                                  ; preds = %20, %23, %26, %28
  %.05978.ph.be = phi i32 [ 0, %28 ], [ 1, %26 ], [ 1, %23 ], [ 1, %20 ]
  %.06276.ph.be = phi ptr [ %.06276, %28 ], [ %27, %26 ], [ %.06276, %23 ], [ %.06276, %20 ]
  %.06177.ph.be = getelementptr inbounds nuw i8, ptr %.06177, i64 1
  br label %.outer

.thread:                                          ; preds = %28, %8
  %30 = getelementptr inbounds nuw i8, ptr %.06276, i64 1
  store i8 62, ptr %.06276, align 1, !tbaa !10
  store i8 0, ptr %30, align 1, !tbaa !10
  %31 = tail call ptr @strstr(ptr noundef nonnull dereferenceable(1) %2, ptr noundef nonnull dereferenceable(1) %7) #30
  %.not = icmp ne ptr %31, null
  tail call void @_efree(ptr noundef nonnull %7) #28
  br label %32

32:                                               ; preds = %3, %.thread
  %.0 = phi i1 [ %.not, %.thread ], [ false, %3 ]
  ret i1 %.0
}